target datalayout = "e-m:e-p270:32:32-p271:32:32-p272:64:64-i64:64-i128:128-f80:128-n8:16:32:64-S128"
target triple = "x86_64-pc-linux-gnu"

@hf_dplay_type_1a_id_to = internal global i32 0, align 4
@hf_dplay_type_1a_sess_name_ofs = internal global i32 0, align 4
@hf_dplay_type_1a_password_ofs = internal global i32 0, align 4
@hf_dplay_type_1a_session_name = internal global i32 0, align 4
@hf_dplay_type_1a_password = internal global i32 0, align 4

; Function Attrs: null_pointer_is_valid sspstrong uwtable
define internal i32 @display_unicode_string(ptr noundef %0, i32 noundef %1, ptr noundef %2, i32 noundef %3) #0 {
  %5 = alloca ptr, align 8
  %6 = alloca i32, align 4
  %7 = alloca ptr, align 8
  %8 = alloca i32, align 4
  %9 = alloca ptr, align 8
  %10 = alloca i32, align 4
  store ptr %0, ptr %5, align 8
  store i32 %1, ptr %6, align 4
  store ptr %2, ptr %7, align 8
  store i32 %3, ptr %8, align 4
  call void @llvm.lifetime.start.p0(i64 8, ptr %9) #5
  call void @llvm.lifetime.start.p0(i64 4, ptr %10) #5
  %11 = call ptr @wmem_packet_scope()
  %12 = load ptr, ptr %7, align 8
  %13 = load i32, ptr %8, align 4
  %14 = call ptr @tvb_get_stringz_enc(ptr noundef %11, ptr noundef %12, i32 noundef %13, ptr noundef %10, i32 noundef -2147483644)
  store ptr %14, ptr %9, align 8
  %15 = load ptr, ptr %5, align 8
  %16 = load i32, ptr %6, align 4
  %17 = load ptr, ptr %7, align 8
  %18 = load i32, ptr %8, align 4
  %19 = load i32, ptr %10, align 4
  %20 = load ptr, ptr %9, align 8
  %21 = call ptr @proto_tree_add_string(ptr noundef %15, i32 noundef %16, ptr noundef %17, i32 noundef %18, i32 noundef %19, ptr noundef %20)
  %22 = load i32, ptr %8, align 4
  %23 = load i32, ptr %10, align 4
  %24 = add i32 %22, %23
  call void @llvm.lifetime.end.p0(i64 4, ptr %10) #5
  call void @llvm.lifetime.end.p0(i64 8, ptr %9) #5
  ret i32 %24
}

; Function Attrs: null_pointer_is_valid sspstrong uwtable
define internal i32 @dissect_type1a_message(ptr noundef %0, ptr noundef %1, i32 noundef %2) #0 {
  %4 = alloca ptr, align 8
  %5 = alloca ptr, align 8
  %6 = alloca i32, align 4
  %7 = alloca i32, align 4
  %8 = alloca i32, align 4
  store ptr %0, ptr %4, align 8
  store ptr %1, ptr %5, align 8
  store i32 %2, ptr %6, align 4
  call void @llvm.lifetime.start.p0(i64 4, ptr %7) #5
  call void @llvm.lifetime.start.p0(i64 4, ptr %8) #5
  %9 = load ptr, ptr %4, align 8
  %10 = load i32, ptr @hf_dplay_type_1a_id_to, align 4
  %11 = load ptr, ptr %5, align 8
  %12 = load i32, ptr %6, align 4
  %13 = call ptr @proto_tree_add_item(ptr noundef %9, i32 noundef %10, ptr noundef %11, i32 noundef %12, i32 noundef 4, i32 noundef 0)
  %14 = load i32, ptr %6, align 4
  %15 = add i32 %14, 4
  store i32 %15, ptr %6, align 4
  %16 = load ptr, ptr %5, align 8
  %17 = load i32, ptr %6, align 4
  %18 = call i32 @tvb_get_letohl(ptr noundef %16, i32 noundef %17)
  store i32 %18, ptr %7, align 4
  %19 = load ptr, ptr %4, align 8
  %20 = load i32, ptr @hf_dplay_type_1a_sess_name_ofs, align 4
  %21 = load ptr, ptr %5, align 8
  %22 = load i32, ptr %6, align 4
  %23 = call ptr @proto_tree_add_item(ptr noundef %19, i32 noundef %20, ptr noundef %21, i32 noundef %22, i32 noundef 4, i32 noundef -2147483648)
  %24 = load i32, ptr %6, align 4
  %25 = add i32 %24, 4
  store i32 %25, ptr %6, align 4
  %26 = load ptr, ptr %5, align 8
  %27 = load i32, ptr %6, align 4
  %28 = call i32 @tvb_get_letohl(ptr noundef %26, i32 noundef %27)
  store i32 %28, ptr %8, align 4
  %29 = load ptr, ptr %4, align 8
  %30 = load i32, ptr @hf_dplay_type_1a_password_ofs, align 4
  %31 = load ptr, ptr %5, align 8
  %32 = load i32, ptr %6, align 4
  %33 = call ptr @proto_tree_add_item(ptr noundef %29, i32 noundef %30, ptr noundef %31, i32 noundef %32, i32 noundef 4, i32 noundef -2147483648)
  %34 = load i32, ptr %6, align 4
  %35 = add i32 %34, 4
  store i32 %35, ptr %6, align 4
  %36 = load ptr, ptr %4, align 8
  %37 = load ptr, ptr %5, align 8
  %38 = load i32, ptr %6, align 4
  %39 = call i32 @dissect_session_desc(ptr noundef %36, ptr noundef %37, i32 noundef %38)
  store i32 %39, ptr %6, align 4
  %40 = load i32, ptr %7, align 4
  %41 = icmp ne i32 %40, 0
  br i1 %41, label %42, label %48

42:                                               ; preds = %3
  %43 = load ptr, ptr %4, align 8
  %44 = load i32, ptr @hf_dplay_type_1a_session_name, align 4
  %45 = load ptr, ptr %5, align 8
  %46 = load i32, ptr %6, align 4
  %47 = call i32 @display_unicode_string(ptr noundef %43, i32 noundef %44, ptr noundef %45, i32 noundef %46)
  store i32 %47, ptr %6, align 4
  br label %48

48:                                               ; preds = %42, %3
  %49 = load i32, ptr %8, align 4
  %50 = icmp ne i32 %49, 0
  br i1 %50, label %51, label %57

51:                                               ; preds = %48
  %52 = load ptr, ptr %4, align 8
  %53 = load i32, ptr @hf_dplay_type_1a_password, align 4
  %54 = load ptr, ptr %5, align 8
  %55 = load i32, ptr %6, align 4
  %56 = call i32 @display_unicode_string(ptr noundef %52, i32 noundef %53, ptr noundef %54, i32 noundef %55)
  store i32 %56, ptr %6, align 4
  br label %57

57:                                               ; preds = %51, %48
  %58 = load i32, ptr %6, align 4
  call void @llvm.lifetime.end.p0(i64 4, ptr %8) #5
  call void @llvm.lifetime.end.p0(i64 4, ptr %7) #5
  ret i32 %58
}