; Function Attrs: null_pointer_is_valid sspstrong uwtable
define internal fastcc i32 @dissect_type1a_message(ptr noundef %0, ptr noundef %1, i32 noundef range(i32 28, 77) %2) unnamed_addr #0 {
  %4 = alloca i32, align 4
  %5 = alloca i32, align 4
  %6 = load i32, ptr @hf_dplay_type_1a_id_to, align 4
  %7 = tail call ptr @proto_tree_add_item(ptr noundef %0, i32 noundef %6, ptr noundef %1, i32 noundef %2, i32 noundef 4, i32 noundef 0)
  %8 = add nuw nsw i32 %2, 4
  %9 = tail call i32 @tvb_get_letohl(ptr noundef %1, i32 noundef %8)
  %10 = load i32, ptr @hf_dplay_type_1a_sess_name_ofs, align 4
  %11 = tail call ptr @proto_tree_add_item(ptr noundef %0, i32 noundef %10, ptr noundef %1, i32 noundef %8, i32 noundef 4, i32 noundef -2147483648)
  %12 = add nuw nsw i32 %2, 8
  %13 = tail call i32 @tvb_get_letohl(ptr noundef %1, i32 noundef %12)
  %14 = load i32, ptr @hf_dplay_type_1a_password_ofs, align 4
  %15 = tail call ptr @proto_tree_add_item(ptr noundef %0, i32 noundef %14, ptr noundef %1, i32 noundef %12, i32 noundef 4, i32 noundef -2147483648)
  %16 = add nuw nsw i32 %2, 12
  %17 = tail call fastcc i32 @dissect_session_desc(ptr noundef %0, ptr noundef %1, i32 noundef %16)
  %.not = icmp eq i32 %9, 0
  br i1 %.not, label %26, label %18

18:                                               ; preds = %3
  %19 = load i32, ptr @hf_dplay_type_1a_session_name, align 4
  call void @llvm.lifetime.start.p0(i64 4, ptr nonnull %5) #3
  %20 = tail call ptr @wmem_packet_scope()
  %21 = call ptr @tvb_get_stringz_enc(ptr noundef %20, ptr noundef %1, i32 noundef %17, ptr noundef nonnull %5, i32 noundef -2147483644)
  %22 = load i32, ptr %5, align 4
  %23 = call ptr @proto_tree_add_string(ptr noundef %0, i32 noundef %19, ptr noundef %1, i32 noundef %17, i32 noundef %22, ptr noundef %21)
  %24 = load i32, ptr %5, align 4
  %25 = add i32 %24, %17
  call void @llvm.lifetime.end.p0(i64 4, ptr nonnull %5) #3
  br label %26

26:                                               ; preds = %18, %3
  %.0 = phi i32 [ %25, %18 ], [ %17, %3 ]
  %.not27 = icmp eq i32 %13, 0
  br i1 %.not27, label %35, label %27

27:                                               ; preds = %26
  %28 = load i32, ptr @hf_dplay_type_1a_password, align 4
  call void @llvm.lifetime.start.p0(i64 4, ptr nonnull %4) #3
  %29 = call ptr @wmem_packet_scope()
  %30 = call ptr @tvb_get_stringz_enc(ptr noundef %29, ptr noundef %1, i32 noundef %.0, ptr noundef nonnull %4, i32 noundef -2147483644)
  %31 = load i32, ptr %4, align 4
  %32 = call ptr @proto_tree_add_string(ptr noundef %0, i32 noundef %28, ptr noundef %1, i32 noundef %.0, i32 noundef %31, ptr noundef %30)
  %33 = load i32, ptr %4, align 4
  %34 = add i32 %33, %.0
  call void @llvm.lifetime.end.p0(i64 4, ptr nonnull %4) #3
  br label %35

35:                                               ; preds = %27, %26
  %.1 = phi i32 [ %34, %27 ], [ %.0, %26 ]
  ret i32 %.1
}